(dp1
S'pendingDisableSet'
p2
c__builtin__
set
p3
((ltRp4
sS'pendingInstallsSet'
p5
g3
((ltRp6
sS'disabledAddons'
p7
g3
((ltRp8
sS'pendingEnableSet'
p9
g3
((ltRp10
sS'pendingRemovesSet'
p11
g3
((ltRp12
s.